target datalayout = "e-m:e-p270:32:32-p271:32:32-p272:64:64-i64:64-i128:128-f80:128-n8:16:32:64-S128"
target triple = "x86_64-pc-linux-gnu"

%struct.strvec = type { ptr, i64, i64 }

@empty_strvec = dso_local global [1 x ptr] zeroinitializer, align 8
@.str = private unnamed_addr constant [9 x i8] c"strvec.c\00", align 1
@.str.1 = private unnamed_addr constant [32 x i8] c"range outside of array boundary\00", align 1
@.str.3 = private unnamed_addr constant [27 x i8] c"size_t overflow: %lu * %lu\00", align 1

; Function Attrs: inlinehint nounwind uwtable
define internal i64 @st_mult(i64 noundef %0, i64 noundef %1) #4 {
  %3 = alloca i64, align 8
  %4 = alloca i64, align 8
  store i64 %0, ptr %3, align 8, !tbaa !17
  store i64 %1, ptr %4, align 8, !tbaa !17
  %5 = load i64, ptr %3, align 8, !tbaa !17
  %6 = icmp ne i64 %5, 0
  br i1 %6, label %7, label %15

7:                                                ; preds = %2
  %8 = load i64, ptr %4, align 8, !tbaa !17
  %9 = load i64, ptr %3, align 8, !tbaa !17
  %10 = udiv i64 -1, %9
  %11 = icmp ugt i64 %8, %10
  br i1 %11, label %12, label %15

12:                                               ; preds = %7
  %13 = load i64, ptr %3, align 8, !tbaa !17
  %14 = load i64, ptr %4, align 8, !tbaa !17
  call void (ptr, ...) @die(ptr noundef @.str.3, i64 noundef %13, i64 noundef %14) #9
  unreachable

15:                                               ; preds = %7, %2
  %16 = load i64, ptr %3, align 8, !tbaa !17
  %17 = load i64, ptr %4, align 8, !tbaa !17
  %18 = mul i64 %16, %17
  ret i64 %18
}

; Function Attrs: nounwind uwtable
define dso_local void @strvec_splice(ptr noundef %0, i64 noundef %1, i64 noundef %2, ptr noundef %3, i64 noundef %4) #0 {
  %6 = alloca ptr, align 8
  %7 = alloca i64, align 8
  %8 = alloca i64, align 8
  %9 = alloca ptr, align 8
  %10 = alloca i64, align 8
  %11 = alloca i64, align 8
  %12 = alloca i64, align 8
  store ptr %0, ptr %6, align 8, !tbaa !4
  store i64 %1, ptr %7, align 8, !tbaa !17
  store i64 %2, ptr %8, align 8, !tbaa !17
  store ptr %3, ptr %9, align 8, !tbaa !20
  store i64 %4, ptr %10, align 8, !tbaa !17
  %13 = load i64, ptr %7, align 8, !tbaa !17
  %14 = load i64, ptr %8, align 8, !tbaa !17
  %15 = add i64 %13, %14
  %16 = load ptr, ptr %6, align 8, !tbaa !4
  %17 = getelementptr inbounds nuw %struct.strvec, ptr %16, i32 0, i32 1
  %18 = load i64, ptr %17, align 8, !tbaa !15
  %19 = icmp ugt i64 %15, %18
  br i1 %19, label %20, label %21

20:                                               ; preds = %5
  call void (ptr, i32, ptr, ...) @BUG_fl(ptr noundef @.str, i32 noundef 63, ptr noundef @.str.1) #9
  unreachable

21:                                               ; preds = %5
  %22 = load i64, ptr %10, align 8, !tbaa !17
  %23 = load i64, ptr %8, align 8, !tbaa !17
  %24 = icmp ugt i64 %22, %23
  br i1 %24, label %25, label %107

25:                                               ; preds = %21
  %26 = load ptr, ptr %6, align 8, !tbaa !4
  %27 = getelementptr inbounds nuw %struct.strvec, ptr %26, i32 0, i32 0
  %28 = load ptr, ptr %27, align 8, !tbaa !11
  %29 = icmp eq ptr %28, @empty_strvec
  br i1 %29, label %30, label %33

30:                                               ; preds = %25
  %31 = load ptr, ptr %6, align 8, !tbaa !4
  %32 = getelementptr inbounds nuw %struct.strvec, ptr %31, i32 0, i32 0
  store ptr null, ptr %32, align 8, !tbaa !11
  br label %33

33:                                               ; preds = %30, %25
  br label %34

34:                                               ; preds = %33
  %35 = load ptr, ptr %6, align 8, !tbaa !4
  %36 = getelementptr inbounds nuw %struct.strvec, ptr %35, i32 0, i32 1
  %37 = load i64, ptr %36, align 8, !tbaa !15
  %38 = load i64, ptr %10, align 8, !tbaa !17
  %39 = load i64, ptr %8, align 8, !tbaa !17
  %40 = sub i64 %38, %39
  %41 = add i64 %37, %40
  %42 = add i64 %41, 1
  %43 = load ptr, ptr %6, align 8, !tbaa !4
  %44 = getelementptr inbounds nuw %struct.strvec, ptr %43, i32 0, i32 2
  %45 = load i64, ptr %44, align 8, !tbaa !16
  %46 = icmp ugt i64 %42, %45
  br i1 %46, label %47, label %94

47:                                               ; preds = %34
  %48 = load ptr, ptr %6, align 8, !tbaa !4
  %49 = getelementptr inbounds nuw %struct.strvec, ptr %48, i32 0, i32 2
  %50 = load i64, ptr %49, align 8, !tbaa !16
  %51 = add i64 %50, 16
  %52 = mul i64 %51, 3
  %53 = udiv i64 %52, 2
  %54 = load ptr, ptr %6, align 8, !tbaa !4
  %55 = getelementptr inbounds nuw %struct.strvec, ptr %54, i32 0, i32 1
  %56 = load i64, ptr %55, align 8, !tbaa !15
  %57 = load i64, ptr %10, align 8, !tbaa !17
  %58 = load i64, ptr %8, align 8, !tbaa !17
  %59 = sub i64 %57, %58
  %60 = add i64 %56, %59
  %61 = add i64 %60, 1
  %62 = icmp ult i64 %53, %61
  br i1 %62, label %63, label %74

63:                                               ; preds = %47
  %64 = load ptr, ptr %6, align 8, !tbaa !4
  %65 = getelementptr inbounds nuw %struct.strvec, ptr %64, i32 0, i32 1
  %66 = load i64, ptr %65, align 8, !tbaa !15
  %67 = load i64, ptr %10, align 8, !tbaa !17
  %68 = load i64, ptr %8, align 8, !tbaa !17
  %69 = sub i64 %67, %68
  %70 = add i64 %66, %69
  %71 = add i64 %70, 1
  %72 = load ptr, ptr %6, align 8, !tbaa !4
  %73 = getelementptr inbounds nuw %struct.strvec, ptr %72, i32 0, i32 2
  store i64 %71, ptr %73, align 8, !tbaa !16
  br label %83

74:                                               ; preds = %47
  %75 = load ptr, ptr %6, align 8, !tbaa !4
  %76 = getelementptr inbounds nuw %struct.strvec, ptr %75, i32 0, i32 2
  %77 = load i64, ptr %76, align 8, !tbaa !16
  %78 = add i64 %77, 16
  %79 = mul i64 %78, 3
  %80 = udiv i64 %79, 2
  %81 = load ptr, ptr %6, align 8, !tbaa !4
  %82 = getelementptr inbounds nuw %struct.strvec, ptr %81, i32 0, i32 2
  store i64 %80, ptr %82, align 8, !tbaa !16
  br label %83

83:                                               ; preds = %74, %63
  %84 = load ptr, ptr %6, align 8, !tbaa !4
  %85 = getelementptr inbounds nuw %struct.strvec, ptr %84, i32 0, i32 0
  %86 = load ptr, ptr %85, align 8, !tbaa !11
  %87 = load ptr, ptr %6, align 8, !tbaa !4
  %88 = getelementptr inbounds nuw %struct.strvec, ptr %87, i32 0, i32 2
  %89 = load i64, ptr %88, align 8, !tbaa !16
  %90 = call i64 @st_mult(i64 noundef 8, i64 noundef %89)
  %91 = call ptr @xrealloc(ptr noundef %86, i64 noundef %90)
  %92 = load ptr, ptr %6, align 8, !tbaa !4
  %93 = getelementptr inbounds nuw %struct.strvec, ptr %92, i32 0, i32 0
  store ptr %91, ptr %93, align 8, !tbaa !11
  br label %94

94:                                               ; preds = %83, %34
  br label %95

95:                                               ; preds = %94
  %96 = load ptr, ptr %6, align 8, !tbaa !4
  %97 = getelementptr inbounds nuw %struct.strvec, ptr %96, i32 0, i32 0
  %98 = load ptr, ptr %97, align 8, !tbaa !11
  %99 = load ptr, ptr %6, align 8, !tbaa !4
  %100 = getelementptr inbounds nuw %struct.strvec, ptr %99, i32 0, i32 1
  %101 = load i64, ptr %100, align 8, !tbaa !15
  %102 = load i64, ptr %10, align 8, !tbaa !17
  %103 = load i64, ptr %8, align 8, !tbaa !17
  %104 = sub i64 %102, %103
  %105 = add i64 %101, %104
  %106 = getelementptr inbounds nuw ptr, ptr %98, i64 %105
  store ptr null, ptr %106, align 8, !tbaa !9
  br label %107

107:                                              ; preds = %95, %21
  call void @llvm.lifetime.start.p0(i64 8, ptr %11) #8
  store i64 0, ptr %11, align 8, !tbaa !17
  br label %108

108:                                              ; preds = %122, %107
  %109 = load i64, ptr %11, align 8, !tbaa !17
  %110 = load i64, ptr %8, align 8, !tbaa !17
  %111 = icmp ult i64 %109, %110
  br i1 %111, label %113, label %112

112:                                              ; preds = %108
  call void @llvm.lifetime.end.p0(i64 8, ptr %11) #8
  br label %125

113:                                              ; preds = %108
  %114 = load ptr, ptr %6, align 8, !tbaa !4
  %115 = getelementptr inbounds nuw %struct.strvec, ptr %114, i32 0, i32 0
  %116 = load ptr, ptr %115, align 8, !tbaa !11
  %117 = load i64, ptr %7, align 8, !tbaa !17
  %118 = load i64, ptr %11, align 8, !tbaa !17
  %119 = add i64 %117, %118
  %120 = getelementptr inbounds nuw ptr, ptr %116, i64 %119
  %121 = load ptr, ptr %120, align 8, !tbaa !9
  call void @free(ptr noundef %121) #8
  br label %122

122:                                              ; preds = %113
  %123 = load i64, ptr %11, align 8, !tbaa !17
  %124 = add i64 %123, 1
  store i64 %124, ptr %11, align 8, !tbaa !17
  br label %108, !llvm.loop !22

125:                                              ; preds = %112
  %126 = load i64, ptr %10, align 8, !tbaa !17
  %127 = load i64, ptr %8, align 8, !tbaa !17
  %128 = icmp ne i64 %126, %127
  br i1 %128, label %129, label %158

129:                                              ; preds = %125
  %130 = load ptr, ptr %6, align 8, !tbaa !4
  %131 = getelementptr inbounds nuw %struct.strvec, ptr %130, i32 0, i32 1
  %132 = load i64, ptr %131, align 8, !tbaa !15
  %133 = icmp ne i64 %132, 0
  br i1 %133, label %134, label %158

134:                                              ; preds = %129
  %135 = load ptr, ptr %6, align 8, !tbaa !4
  %136 = getelementptr inbounds nuw %struct.strvec, ptr %135, i32 0, i32 0
  %137 = load ptr, ptr %136, align 8, !tbaa !11
  %138 = load i64, ptr %7, align 8, !tbaa !17
  %139 = getelementptr inbounds nuw ptr, ptr %137, i64 %138
  %140 = load i64, ptr %10, align 8, !tbaa !17
  %141 = getelementptr inbounds nuw ptr, ptr %139, i64 %140
  %142 = load ptr, ptr %6, align 8, !tbaa !4
  %143 = getelementptr inbounds nuw %struct.strvec, ptr %142, i32 0, i32 0
  %144 = load ptr, ptr %143, align 8, !tbaa !11
  %145 = load i64, ptr %7, align 8, !tbaa !17
  %146 = getelementptr inbounds nuw ptr, ptr %144, i64 %145
  %147 = load i64, ptr %8, align 8, !tbaa !17
  %148 = getelementptr inbounds nuw ptr, ptr %146, i64 %147
  %149 = load ptr, ptr %6, align 8, !tbaa !4
  %150 = getelementptr inbounds nuw %struct.strvec, ptr %149, i32 0, i32 1
  %151 = load i64, ptr %150, align 8, !tbaa !15
  %152 = load i64, ptr %7, align 8, !tbaa !17
  %153 = sub i64 %151, %152
  %154 = load i64, ptr %8, align 8, !tbaa !17
  %155 = sub i64 %153, %154
  %156 = add i64 %155, 1
  %157 = mul i64 %156, 8
  call void @llvm.memmove.p0.p0.i64(ptr align 8 %141, ptr align 8 %148, i64 %157, i1 false)
  br label %158

158:                                              ; preds = %134, %129, %125
  %159 = load i64, ptr %10, align 8, !tbaa !17
  %160 = load i64, ptr %8, align 8, !tbaa !17
  %161 = sub i64 %159, %160
  %162 = load ptr, ptr %6, align 8, !tbaa !4
  %163 = getelementptr inbounds nuw %struct.strvec, ptr %162, i32 0, i32 1
  %164 = load i64, ptr %163, align 8, !tbaa !15
  %165 = add i64 %164, %161
  store i64 %165, ptr %163, align 8, !tbaa !15
  call void @llvm.lifetime.start.p0(i64 8, ptr %12) #8
  store i64 0, ptr %12, align 8, !tbaa !17
  br label %166

166:                                              ; preds = %184, %158
  %167 = load i64, ptr %12, align 8, !tbaa !17
  %168 = load i64, ptr %10, align 8, !tbaa !17
  %169 = icmp ult i64 %167, %168
  br i1 %169, label %171, label %170

170:                                              ; preds = %166
  call void @llvm.lifetime.end.p0(i64 8, ptr %12) #8
  br label %187

171:                                              ; preds = %166
  %172 = load ptr, ptr %9, align 8, !tbaa !20
  %173 = load i64, ptr %12, align 8, !tbaa !17
  %174 = getelementptr inbounds nuw ptr, ptr %172, i64 %173
  %175 = load ptr, ptr %174, align 8, !tbaa !9
  %176 = call ptr @xstrdup(ptr noundef %175)
  %177 = load ptr, ptr %6, align 8, !tbaa !4
  %178 = getelementptr inbounds nuw %struct.strvec, ptr %177, i32 0, i32 0
  %179 = load ptr, ptr %178, align 8, !tbaa !11
  %180 = load i64, ptr %7, align 8, !tbaa !17
  %181 = load i64, ptr %12, align 8, !tbaa !17
  %182 = add i64 %180, %181
  %183 = getelementptr inbounds nuw ptr, ptr %179, i64 %182
  store ptr %176, ptr %183, align 8, !tbaa !9
  br label %184

184:                                              ; preds = %171
  %185 = load i64, ptr %12, align 8, !tbaa !17
  %186 = add i64 %185, 1
  store i64 %186, ptr %12, align 8, !tbaa !17
  br label %166, !llvm.loop !23

187:                                              ; preds = %170
  ret void
}