; Function Attrs: nounwind uwtable
define dso_local void @strvec_splice(ptr noundef captures(none) %0, i64 noundef %1, i64 noundef %2, ptr noundef readonly captures(none) %3, i64 noundef %4) local_unnamed_addr #3 {
  %6 = add i64 %2, %1
  %7 = getelementptr inbounds nuw i8, ptr %0, i64 8
  %8 = load i64, ptr %7, align 8, !tbaa !11
  %9 = icmp ugt i64 %6, %8
  br i1 %9, label %10, label %11

10:                                               ; preds = %5
  tail call void (ptr, i32, ptr, ...) @BUG_fl(ptr noundef nonnull @.str, i32 noundef 63, ptr noundef nonnull @.str.1) #10
  unreachable

11:                                               ; preds = %5
  %12 = icmp ugt i64 %4, %2
  br i1 %12, label %13, label %38

13:                                               ; preds = %11
  %14 = load ptr, ptr %0, align 8, !tbaa !4
  %15 = icmp eq ptr %14, @empty_strvec
  br i1 %15, label %16, label %17

16:                                               ; preds = %13
  store ptr null, ptr %0, align 8, !tbaa !4
  br label %17

17:                                               ; preds = %13, %16
  %18 = phi ptr [ %14, %13 ], [ null, %16 ]
  %19 = sub i64 %4, %2
  %20 = add i64 %19, 1
  %21 = add i64 %20, %8
  %22 = getelementptr inbounds nuw i8, ptr %0, i64 16
  %23 = load i64, ptr %22, align 8, !tbaa !12
  %24 = icmp ugt i64 %21, %23
  br i1 %24, label %25, label %33

25:                                               ; preds = %17
  %26 = mul i64 %23, 3
  %27 = add i64 %26, 48
  %28 = lshr i64 %27, 1
  %. = tail call i64 @llvm.umax.i64(i64 %28, i64 %21)
  store i64 %., ptr %22, align 8, !tbaa !12
  %29 = icmp ugt i64 %., 2305843009213693951
  br i1 %29, label %30, label %st_mult.exit

30:                                               ; preds = %25
  tail call void (ptr, ...) @die(ptr noundef nonnull @.str.3, i64 noundef 8, i64 noundef %.) #10
  unreachable

st_mult.exit:                                     ; preds = %25
  %31 = shl nuw i64 %., 3
  %32 = tail call ptr @xrealloc(ptr noundef %18, i64 noundef %31) #11
  store ptr %32, ptr %0, align 8, !tbaa !4
  %.pre = load i64, ptr %7, align 8, !tbaa !11
  br label %33

33:                                               ; preds = %17, %st_mult.exit
  %34 = phi i64 [ %8, %17 ], [ %.pre, %st_mult.exit ]
  %35 = phi ptr [ %18, %17 ], [ %32, %st_mult.exit ]
  %36 = getelementptr ptr, ptr %35, i64 %34
  %37 = getelementptr ptr, ptr %36, i64 %19
  store ptr null, ptr %37, align 8, !tbaa !13
  br label %38

38:                                               ; preds = %33, %11
  %.pre7476 = phi i64 [ %34, %33 ], [ %8, %11 ]
  %.not70 = icmp eq i64 %2, 0
  br i1 %.not70, label %._crit_edge, label %.lr.ph

._crit_edge.loopexit:                             ; preds = %.lr.ph
  %.pre74.pre = load i64, ptr %7, align 8, !tbaa !11
  br label %._crit_edge

._crit_edge:                                      ; preds = %._crit_edge.loopexit, %38
  %.pre74 = phi i64 [ %.pre74.pre, %._crit_edge.loopexit ], [ %.pre7476, %38 ]
  %.not = icmp eq i64 %4, %2
  br i1 %.not, label %53, label %44

.lr.ph:                                           ; preds = %38, %.lr.ph
  %.05665 = phi i64 [ %43, %.lr.ph ], [ 0, %38 ]
  %39 = load ptr, ptr %0, align 8, !tbaa !4
  %40 = getelementptr ptr, ptr %39, i64 %1
  %41 = getelementptr ptr, ptr %40, i64 %.05665
  %42 = load ptr, ptr %41, align 8, !tbaa !13
  tail call void @free(ptr noundef %42) #11
  %43 = add nuw i64 %.05665, 1
  %exitcond.not = icmp eq i64 %43, %2
  br i1 %exitcond.not, label %._crit_edge.loopexit, label %.lr.ph, !llvm.loop !18

44:                                               ; preds = %._crit_edge
  %.not64 = icmp eq i64 %.pre74, 0
  br i1 %.not64, label %53, label %45

45:                                               ; preds = %44
  %46 = load ptr, ptr %0, align 8, !tbaa !4
  %47 = getelementptr inbounds nuw ptr, ptr %46, i64 %1
  %48 = getelementptr inbounds nuw ptr, ptr %47, i64 %4
  %49 = getelementptr inbounds nuw ptr, ptr %47, i64 %2
  %50 = sub i64 %.pre74, %6
  %51 = shl i64 %50, 3
  %52 = add i64 %51, 8
  tail call void @llvm.memmove.p0.p0.i64(ptr align 8 %48, ptr align 8 %49, i64 %52, i1 false)
  %.pre73 = load i64, ptr %7, align 8, !tbaa !11
  br label %53

53:                                               ; preds = %45, %44, %._crit_edge
  %54 = phi i64 [ %.pre73, %45 ], [ 0, %44 ], [ %.pre74, %._crit_edge ]
  %55 = sub i64 %4, %2
  %56 = add i64 %55, %54
  store i64 %56, ptr %7, align 8, !tbaa !11
  %.not71 = icmp eq i64 %4, 0
  br i1 %.not71, label %._crit_edge69, label %.lr.ph68

._crit_edge69:                                    ; preds = %.lr.ph68, %53
  ret void

.lr.ph68:                                         ; preds = %53, %.lr.ph68
  %.066 = phi i64 [ %63, %.lr.ph68 ], [ 0, %53 ]
  %57 = getelementptr inbounds nuw ptr, ptr %3, i64 %.066
  %58 = load ptr, ptr %57, align 8, !tbaa !13
  %59 = tail call ptr @xstrdup(ptr noundef %58) #11
  %60 = load ptr, ptr %0, align 8, !tbaa !4
  %61 = getelementptr ptr, ptr %60, i64 %1
  %62 = getelementptr ptr, ptr %61, i64 %.066
  store ptr %59, ptr %62, align 8, !tbaa !13
  %63 = add nuw i64 %.066, 1
  %exitcond72.not = icmp eq i64 %63, %4
  br i1 %exitcond72.not, label %._crit_edge69, label %.lr.ph68, !llvm.loop !19
}